target datalayout = "e-m:e-p270:32:32-p271:32:32-p272:64:64-i64:64-i128:128-f80:128-n8:16:32:64-S128"
target triple = "x86_64-pc-linux-gnu"

%struct.H5FD_file_image_info_t = type { ptr, i64, %struct.H5FD_file_image_callbacks_t }
%struct.H5FD_file_image_callbacks_t = type { ptr, ptr, ptr, ptr, ptr, ptr, ptr }

@H5P_init_g = external global i8, align 1
@H5_libterm_g = external global i8, align 1

; Function Attrs: nounwind uwtable
define internal i32 @H5P__facc_file_image_info_cmp(ptr noundef %0, ptr noundef %1, i64 noundef %2) #0 {
  %4 = alloca ptr, align 8
  %5 = alloca ptr, align 8
  %6 = alloca i64, align 8
  %7 = alloca ptr, align 8
  %8 = alloca ptr, align 8
  %9 = alloca i32, align 4
  store ptr %0, ptr %4, align 8, !tbaa !32
  store ptr %1, ptr %5, align 8, !tbaa !32
  store i64 %2, ptr %6, align 8, !tbaa !8
  call void @llvm.lifetime.start.p0(i64 8, ptr %7) #10
  %10 = load ptr, ptr %4, align 8, !tbaa !32
  store ptr %10, ptr %7, align 8, !tbaa !32
  call void @llvm.lifetime.start.p0(i64 8, ptr %8) #10
  %11 = load ptr, ptr %5, align 8, !tbaa !32
  store ptr %11, ptr %8, align 8, !tbaa !32
  call void @llvm.lifetime.start.p0(i64 4, ptr %9) #10
  store i32 0, ptr %9, align 4, !tbaa !20
  %12 = load i8, ptr @H5P_init_g, align 1, !tbaa !22, !range !24, !noundef !25
  %13 = trunc i8 %12 to i1
  br i1 %13, label %18, label %14

14:                                               ; preds = %3
  %15 = load i8, ptr @H5_libterm_g, align 1, !tbaa !22, !range !24, !noundef !25
  %16 = trunc i8 %15 to i1
  %17 = xor i1 %16, true
  br label %18

18:                                               ; preds = %14, %3
  %19 = phi i1 [ true, %3 ], [ %17, %14 ]
  %20 = xor i1 %19, true
  %21 = xor i1 %20, true
  %22 = zext i1 %21 to i32
  %23 = sext i32 %22 to i64
  %24 = call i64 @llvm.expect.i64(i64 %23, i64 1)
  %25 = icmp ne i64 %24, 0
  br i1 %25, label %26, label %211

26:                                               ; preds = %18
  %27 = load ptr, ptr %7, align 8, !tbaa !32
  %28 = getelementptr inbounds nuw %struct.H5FD_file_image_info_t, ptr %27, i32 0, i32 1
  %29 = load i64, ptr %28, align 8, !tbaa !57
  %30 = load ptr, ptr %8, align 8, !tbaa !32
  %31 = getelementptr inbounds nuw %struct.H5FD_file_image_info_t, ptr %30, i32 0, i32 1
  %32 = load i64, ptr %31, align 8, !tbaa !57
  %33 = icmp ult i64 %29, %32
  br i1 %33, label %34, label %38

34:                                               ; preds = %26
  br label %35

35:                                               ; preds = %34
  store i32 -1, ptr %9, align 4, !tbaa !20
  br label %210

36:                                               ; No predecessors!
  br label %37

37:                                               ; preds = %36
  br label %38

38:                                               ; preds = %37, %26
  %39 = load ptr, ptr %7, align 8, !tbaa !32
  %40 = getelementptr inbounds nuw %struct.H5FD_file_image_info_t, ptr %39, i32 0, i32 1
  %41 = load i64, ptr %40, align 8, !tbaa !57
  %42 = load ptr, ptr %8, align 8, !tbaa !32
  %43 = getelementptr inbounds nuw %struct.H5FD_file_image_info_t, ptr %42, i32 0, i32 1
  %44 = load i64, ptr %43, align 8, !tbaa !57
  %45 = icmp ugt i64 %41, %44
  br i1 %45, label %46, label %50

46:                                               ; preds = %38
  br label %47

47:                                               ; preds = %46
  store i32 1, ptr %9, align 4, !tbaa !20
  br label %210

48:                                               ; No predecessors!
  br label %49

49:                                               ; preds = %48
  br label %50

50:                                               ; preds = %49, %38
  %51 = load ptr, ptr %7, align 8, !tbaa !32
  %52 = getelementptr inbounds nuw %struct.H5FD_file_image_info_t, ptr %51, i32 0, i32 2
  %53 = getelementptr inbounds nuw %struct.H5FD_file_image_callbacks_t, ptr %52, i32 0, i32 0
  %54 = load ptr, ptr %53, align 8, !tbaa !55
  %55 = load ptr, ptr %8, align 8, !tbaa !32
  %56 = getelementptr inbounds nuw %struct.H5FD_file_image_info_t, ptr %55, i32 0, i32 2
  %57 = getelementptr inbounds nuw %struct.H5FD_file_image_callbacks_t, ptr %56, i32 0, i32 0
  %58 = load ptr, ptr %57, align 8, !tbaa !55
  %59 = icmp ne ptr %54, %58
  br i1 %59, label %60, label %64

60:                                               ; preds = %50
  br label %61

61:                                               ; preds = %60
  store i32 1, ptr %9, align 4, !tbaa !20
  br label %210

62:                                               ; No predecessors!
  br label %63

63:                                               ; preds = %62
  br label %64

64:                                               ; preds = %63, %50
  %65 = load ptr, ptr %7, align 8, !tbaa !32
  %66 = getelementptr inbounds nuw %struct.H5FD_file_image_info_t, ptr %65, i32 0, i32 2
  %67 = getelementptr inbounds nuw %struct.H5FD_file_image_callbacks_t, ptr %66, i32 0, i32 1
  %68 = load ptr, ptr %67, align 8, !tbaa !56
  %69 = load ptr, ptr %8, align 8, !tbaa !32
  %70 = getelementptr inbounds nuw %struct.H5FD_file_image_info_t, ptr %69, i32 0, i32 2
  %71 = getelementptr inbounds nuw %struct.H5FD_file_image_callbacks_t, ptr %70, i32 0, i32 1
  %72 = load ptr, ptr %71, align 8, !tbaa !56
  %73 = icmp ne ptr %68, %72
  br i1 %73, label %74, label %78

74:                                               ; preds = %64
  br label %75

75:                                               ; preds = %74
  store i32 -1, ptr %9, align 4, !tbaa !20
  br label %210

76:                                               ; No predecessors!
  br label %77

77:                                               ; preds = %76
  br label %78

78:                                               ; preds = %77, %64
  %79 = load ptr, ptr %7, align 8, !tbaa !32
  %80 = getelementptr inbounds nuw %struct.H5FD_file_image_info_t, ptr %79, i32 0, i32 2
  %81 = getelementptr inbounds nuw %struct.H5FD_file_image_callbacks_t, ptr %80, i32 0, i32 2
  %82 = load ptr, ptr %81, align 8, !tbaa !136
  %83 = load ptr, ptr %8, align 8, !tbaa !32
  %84 = getelementptr inbounds nuw %struct.H5FD_file_image_info_t, ptr %83, i32 0, i32 2
  %85 = getelementptr inbounds nuw %struct.H5FD_file_image_callbacks_t, ptr %84, i32 0, i32 2
  %86 = load ptr, ptr %85, align 8, !tbaa !136
  %87 = icmp ne ptr %82, %86
  br i1 %87, label %88, label %92

88:                                               ; preds = %78
  br label %89

89:                                               ; preds = %88
  store i32 1, ptr %9, align 4, !tbaa !20
  br label %210

90:                                               ; No predecessors!
  br label %91

91:                                               ; preds = %90
  br label %92

92:                                               ; preds = %91, %78
  %93 = load ptr, ptr %7, align 8, !tbaa !32
  %94 = getelementptr inbounds nuw %struct.H5FD_file_image_info_t, ptr %93, i32 0, i32 2
  %95 = getelementptr inbounds nuw %struct.H5FD_file_image_callbacks_t, ptr %94, i32 0, i32 3
  %96 = load ptr, ptr %95, align 8, !tbaa !53
  %97 = load ptr, ptr %8, align 8, !tbaa !32
  %98 = getelementptr inbounds nuw %struct.H5FD_file_image_info_t, ptr %97, i32 0, i32 2
  %99 = getelementptr inbounds nuw %struct.H5FD_file_image_callbacks_t, ptr %98, i32 0, i32 3
  %100 = load ptr, ptr %99, align 8, !tbaa !53
  %101 = icmp ne ptr %96, %100
  br i1 %101, label %102, label %106

102:                                              ; preds = %92
  br label %103

103:                                              ; preds = %102
  store i32 -1, ptr %9, align 4, !tbaa !20
  br label %210

104:                                              ; No predecessors!
  br label %105

105:                                              ; preds = %104
  br label %106

106:                                              ; preds = %105, %92
  %107 = load ptr, ptr %7, align 8, !tbaa !32
  %108 = getelementptr inbounds nuw %struct.H5FD_file_image_info_t, ptr %107, i32 0, i32 2
  %109 = getelementptr inbounds nuw %struct.H5FD_file_image_callbacks_t, ptr %108, i32 0, i32 4
  %110 = load ptr, ptr %109, align 8, !tbaa !63
  %111 = load ptr, ptr %8, align 8, !tbaa !32
  %112 = getelementptr inbounds nuw %struct.H5FD_file_image_info_t, ptr %111, i32 0, i32 2
  %113 = getelementptr inbounds nuw %struct.H5FD_file_image_callbacks_t, ptr %112, i32 0, i32 4
  %114 = load ptr, ptr %113, align 8, !tbaa !63
  %115 = icmp ne ptr %110, %114
  br i1 %115, label %116, label %120

116:                                              ; preds = %106
  br label %117

117:                                              ; preds = %116
  store i32 1, ptr %9, align 4, !tbaa !20
  br label %210

118:                                              ; No predecessors!
  br label %119

119:                                              ; preds = %118
  br label %120

120:                                              ; preds = %119, %106
  %121 = load ptr, ptr %7, align 8, !tbaa !32
  %122 = getelementptr inbounds nuw %struct.H5FD_file_image_info_t, ptr %121, i32 0, i32 2
  %123 = getelementptr inbounds nuw %struct.H5FD_file_image_callbacks_t, ptr %122, i32 0, i32 5
  %124 = load ptr, ptr %123, align 8, !tbaa !61
  %125 = load ptr, ptr %8, align 8, !tbaa !32
  %126 = getelementptr inbounds nuw %struct.H5FD_file_image_info_t, ptr %125, i32 0, i32 2
  %127 = getelementptr inbounds nuw %struct.H5FD_file_image_callbacks_t, ptr %126, i32 0, i32 5
  %128 = load ptr, ptr %127, align 8, !tbaa !61
  %129 = icmp ne ptr %124, %128
  br i1 %129, label %130, label %134

130:                                              ; preds = %120
  br label %131

131:                                              ; preds = %130
  store i32 -1, ptr %9, align 4, !tbaa !20
  br label %210

132:                                              ; No predecessors!
  br label %133

133:                                              ; preds = %132
  br label %134

134:                                              ; preds = %133, %120
  %135 = load ptr, ptr %7, align 8, !tbaa !32
  %136 = getelementptr inbounds nuw %struct.H5FD_file_image_info_t, ptr %135, i32 0, i32 2
  %137 = getelementptr inbounds nuw %struct.H5FD_file_image_callbacks_t, ptr %136, i32 0, i32 6
  %138 = load ptr, ptr %137, align 8, !tbaa !54
  %139 = load ptr, ptr %8, align 8, !tbaa !32
  %140 = getelementptr inbounds nuw %struct.H5FD_file_image_info_t, ptr %139, i32 0, i32 2
  %141 = getelementptr inbounds nuw %struct.H5FD_file_image_callbacks_t, ptr %140, i32 0, i32 6
  %142 = load ptr, ptr %141, align 8, !tbaa !54
  %143 = icmp ult ptr %138, %142
  br i1 %143, label %144, label %148

144:                                              ; preds = %134
  br label %145

145:                                              ; preds = %144
  store i32 -1, ptr %9, align 4, !tbaa !20
  br label %210

146:                                              ; No predecessors!
  br label %147

147:                                              ; preds = %146
  br label %148

148:                                              ; preds = %147, %134
  %149 = load ptr, ptr %7, align 8, !tbaa !32
  %150 = getelementptr inbounds nuw %struct.H5FD_file_image_info_t, ptr %149, i32 0, i32 2
  %151 = getelementptr inbounds nuw %struct.H5FD_file_image_callbacks_t, ptr %150, i32 0, i32 6
  %152 = load ptr, ptr %151, align 8, !tbaa !54
  %153 = load ptr, ptr %8, align 8, !tbaa !32
  %154 = getelementptr inbounds nuw %struct.H5FD_file_image_info_t, ptr %153, i32 0, i32 2
  %155 = getelementptr inbounds nuw %struct.H5FD_file_image_callbacks_t, ptr %154, i32 0, i32 6
  %156 = load ptr, ptr %155, align 8, !tbaa !54
  %157 = icmp ugt ptr %152, %156
  br i1 %157, label %158, label %162

158:                                              ; preds = %148
  br label %159

159:                                              ; preds = %158
  store i32 1, ptr %9, align 4, !tbaa !20
  br label %210

160:                                              ; No predecessors!
  br label %161

161:                                              ; preds = %160
  br label %162

162:                                              ; preds = %161, %148
  %163 = load ptr, ptr %7, align 8, !tbaa !32
  %164 = getelementptr inbounds nuw %struct.H5FD_file_image_info_t, ptr %163, i32 0, i32 0
  %165 = load ptr, ptr %164, align 8, !tbaa !50
  %166 = icmp ne ptr %165, null
  br i1 %166, label %167, label %176

167:                                              ; preds = %162
  %168 = load ptr, ptr %8, align 8, !tbaa !32
  %169 = getelementptr inbounds nuw %struct.H5FD_file_image_info_t, ptr %168, i32 0, i32 0
  %170 = load ptr, ptr %169, align 8, !tbaa !50
  %171 = icmp eq ptr %170, null
  br i1 %171, label %172, label %176

172:                                              ; preds = %167
  br label %173

173:                                              ; preds = %172
  store i32 -1, ptr %9, align 4, !tbaa !20
  br label %210

174:                                              ; No predecessors!
  br label %175

175:                                              ; preds = %174
  br label %176

176:                                              ; preds = %175, %167, %162
  %177 = load ptr, ptr %7, align 8, !tbaa !32
  %178 = getelementptr inbounds nuw %struct.H5FD_file_image_info_t, ptr %177, i32 0, i32 0
  %179 = load ptr, ptr %178, align 8, !tbaa !50
  %180 = icmp eq ptr %179, null
  br i1 %180, label %181, label %190

181:                                              ; preds = %176
  %182 = load ptr, ptr %8, align 8, !tbaa !32
  %183 = getelementptr inbounds nuw %struct.H5FD_file_image_info_t, ptr %182, i32 0, i32 0
  %184 = load ptr, ptr %183, align 8, !tbaa !50
  %185 = icmp ne ptr %184, null
  br i1 %185, label %186, label %190

186:                                              ; preds = %181
  br label %187

187:                                              ; preds = %186
  store i32 1, ptr %9, align 4, !tbaa !20
  br label %210

188:                                              ; No predecessors!
  br label %189

189:                                              ; preds = %188
  br label %190

190:                                              ; preds = %189, %181, %176
  %191 = load ptr, ptr %7, align 8, !tbaa !32
  %192 = getelementptr inbounds nuw %struct.H5FD_file_image_info_t, ptr %191, i32 0, i32 0
  %193 = load ptr, ptr %192, align 8, !tbaa !50
  %194 = icmp ne ptr %193, null
  br i1 %194, label %195, label %209

195:                                              ; preds = %190
  %196 = load ptr, ptr %8, align 8, !tbaa !32
  %197 = getelementptr inbounds nuw %struct.H5FD_file_image_info_t, ptr %196, i32 0, i32 0
  %198 = load ptr, ptr %197, align 8, !tbaa !50
  %199 = icmp ne ptr %198, null
  br i1 %199, label %200, label %209

200:                                              ; preds = %195
  %201 = load ptr, ptr %7, align 8, !tbaa !32
  %202 = getelementptr inbounds nuw %struct.H5FD_file_image_info_t, ptr %201, i32 0, i32 0
  %203 = load ptr, ptr %202, align 8, !tbaa !50
  %204 = load ptr, ptr %8, align 8, !tbaa !32
  %205 = getelementptr inbounds nuw %struct.H5FD_file_image_info_t, ptr %204, i32 0, i32 0
  %206 = load ptr, ptr %205, align 8, !tbaa !50
  %207 = load i64, ptr %6, align 8, !tbaa !8
  %208 = call i32 @memcmp(ptr noundef %203, ptr noundef %206, i64 noundef %207) #11
  store i32 %208, ptr %9, align 4, !tbaa !20
  br label %209

209:                                              ; preds = %200, %195, %190
  br label %210

210:                                              ; preds = %209, %187, %173, %159, %145, %131, %117, %103, %89, %75, %61, %47, %35
  br label %211

211:                                              ; preds = %210, %18
  %212 = load i32, ptr %9, align 4, !tbaa !20
  call void @llvm.lifetime.end.p0(i64 4, ptr %9) #10
  call void @llvm.lifetime.end.p0(i64 8, ptr %8) #10
  call void @llvm.lifetime.end.p0(i64 8, ptr %7) #10
  ret i32 %212
}