; Function Attrs: mustprogress nofree nounwind willreturn memory(read, inaccessiblemem: none) uwtable
define internal i32 @H5P__facc_file_image_info_cmp(ptr noundef readonly captures(none) %0, ptr noundef readonly captures(none) %1, i64 noundef %2) #13 {
  %4 = load i8, ptr @H5P_init_g, align 1, !tbaa !16, !range !18, !noundef !19
  %5 = trunc nuw i8 %4 to i1
  %6 = load i8, ptr @H5_libterm_g, align 1, !range !18
  %7 = trunc nuw i8 %6 to i1
  %8 = xor i1 %7, true
  %9 = select i1 %5, i1 true, i1 %8
  br i1 %9, label %10, label %.thread46, !prof !20

10:                                               ; preds = %3
  %11 = getelementptr inbounds nuw i8, ptr %0, i64 8
  %12 = load i64, ptr %11, align 8, !tbaa !47
  %13 = getelementptr inbounds nuw i8, ptr %1, i64 8
  %14 = load i64, ptr %13, align 8, !tbaa !47
  %15 = icmp ult i64 %12, %14
  br i1 %15, label %.thread46, label %16

16:                                               ; preds = %10
  %17 = icmp ugt i64 %12, %14
  br i1 %17, label %.thread46, label %18

18:                                               ; preds = %16
  %19 = getelementptr inbounds nuw i8, ptr %0, i64 16
  %20 = load ptr, ptr %19, align 8, !tbaa !45
  %21 = getelementptr inbounds nuw i8, ptr %1, i64 16
  %22 = load ptr, ptr %21, align 8, !tbaa !45
  %.not = icmp eq ptr %20, %22
  br i1 %.not, label %23, label %.thread46

23:                                               ; preds = %18
  %24 = getelementptr inbounds nuw i8, ptr %0, i64 24
  %25 = load ptr, ptr %24, align 8, !tbaa !46
  %26 = getelementptr inbounds nuw i8, ptr %1, i64 24
  %27 = load ptr, ptr %26, align 8, !tbaa !46
  %.not37 = icmp eq ptr %25, %27
  br i1 %.not37, label %28, label %.thread46

28:                                               ; preds = %23
  %29 = getelementptr inbounds nuw i8, ptr %0, i64 32
  %30 = load ptr, ptr %29, align 8, !tbaa !120
  %31 = getelementptr inbounds nuw i8, ptr %1, i64 32
  %32 = load ptr, ptr %31, align 8, !tbaa !120
  %.not38 = icmp eq ptr %30, %32
  br i1 %.not38, label %33, label %.thread46

33:                                               ; preds = %28
  %34 = getelementptr inbounds nuw i8, ptr %0, i64 40
  %35 = load ptr, ptr %34, align 8, !tbaa !43
  %36 = getelementptr inbounds nuw i8, ptr %1, i64 40
  %37 = load ptr, ptr %36, align 8, !tbaa !43
  %.not39 = icmp eq ptr %35, %37
  br i1 %.not39, label %38, label %.thread46

38:                                               ; preds = %33
  %39 = getelementptr inbounds nuw i8, ptr %0, i64 48
  %40 = load ptr, ptr %39, align 8, !tbaa !55
  %41 = getelementptr inbounds nuw i8, ptr %1, i64 48
  %42 = load ptr, ptr %41, align 8, !tbaa !55
  %.not40 = icmp eq ptr %40, %42
  br i1 %.not40, label %43, label %.thread46

43:                                               ; preds = %38
  %44 = getelementptr inbounds nuw i8, ptr %0, i64 56
  %45 = load ptr, ptr %44, align 8, !tbaa !53
  %46 = getelementptr inbounds nuw i8, ptr %1, i64 56
  %47 = load ptr, ptr %46, align 8, !tbaa !53
  %.not41 = icmp eq ptr %45, %47
  br i1 %.not41, label %48, label %.thread46

48:                                               ; preds = %43
  %49 = getelementptr inbounds nuw i8, ptr %0, i64 64
  %50 = load ptr, ptr %49, align 8, !tbaa !44
  %51 = getelementptr inbounds nuw i8, ptr %1, i64 64
  %52 = load ptr, ptr %51, align 8, !tbaa !44
  %53 = icmp ult ptr %50, %52
  br i1 %53, label %.thread46, label %54

54:                                               ; preds = %48
  %55 = icmp ugt ptr %50, %52
  br i1 %55, label %.thread46, label %56

56:                                               ; preds = %54
  %57 = load ptr, ptr %0, align 8, !tbaa !40
  %.not42 = icmp eq ptr %57, null
  %58 = load ptr, ptr %1, align 8, !tbaa !40
  br i1 %.not42, label %61, label %59

59:                                               ; preds = %56
  %60 = icmp eq ptr %58, null
  br i1 %60, label %.thread46, label %62

61:                                               ; preds = %56
  %.not43 = icmp ne ptr %58, null
  %spec.select = zext i1 %.not43 to i32
  br label %.thread46

62:                                               ; preds = %59
  %63 = tail call i32 @memcmp(ptr noundef nonnull %57, ptr noundef nonnull %58, i64 noundef %2) #16
  br label %.thread46

.thread46:                                        ; preds = %61, %59, %54, %48, %43, %38, %33, %28, %23, %18, %16, %10, %62, %3
  %.0 = phi i32 [ %63, %62 ], [ 0, %3 ], [ -1, %10 ], [ 1, %16 ], [ 1, %18 ], [ -1, %23 ], [ 1, %28 ], [ -1, %33 ], [ 1, %38 ], [ -1, %43 ], [ -1, %48 ], [ 1, %54 ], [ -1, %59 ], [ %spec.select, %61 ]
  ret i32 %.0
}